; Function Attrs: mustprogress nofree norecurse nosync nounwind willreturn memory(read, inaccessiblemem: none) uwtable
define dso_local zeroext i1 @Curl_shutdown_started(ptr noundef readonly captures(none) %0, i32 noundef %1) local_unnamed_addr #6 {
  %3 = getelementptr inbounds nuw i8, ptr %0, i64 24
  %4 = load ptr, ptr %3, align 8, !tbaa !80
  %5 = getelementptr inbounds nuw i8, ptr %4, i64 624
  %6 = sext i32 %1 to i64
  %7 = getelementptr inbounds [2 x %struct.curltime], ptr %5, i64 0, i64 %6
  %8 = load i64, ptr %7, align 8, !tbaa !92
  %9 = icmp sgt i64 %8, 0
  br i1 %9, label %14, label %10

10:                                               ; preds = %2
  %11 = getelementptr inbounds nuw i8, ptr %7, i64 8
  %12 = load i32, ptr %11, align 8, !tbaa !95
  %13 = icmp sgt i32 %12, 0
  br label %14

14:                                               ; preds = %10, %2
  %15 = phi i1 [ true, %2 ], [ %13, %10 ]
  ret i1 %15
}